target datalayout = "e-m:e-p270:32:32-p271:32:32-p272:64:64-i64:64-i128:128-f80:128-n8:16:32:64-S128"
target triple = "x86_64-pc-linux-gnu"

%struct.proclist_head = type { i32, i32 }
%struct.MultiXactStateData = type { i32, i32, i8, i32, i32, i32, i8, i32, i32, i32, i32, i32, %struct.ConditionVariable, [0 x i32] }
%struct.ConditionVariable = type { i8, %struct.proclist_head }

@MultiXactState = internal global ptr null, align 8

; Function Attrs: nounwind uwtable
define dso_local zeroext i1 @MultiXactIdPrecedes(i32 noundef %0, i32 noundef %1) #0 {
  %3 = alloca i32, align 4
  %4 = alloca i32, align 4
  %5 = alloca i32, align 4
  store i32 %0, ptr %3, align 4
  store i32 %1, ptr %4, align 4
  call void @llvm.lifetime.start.p0(i64 4, ptr %5) #9
  %6 = load i32, ptr %3, align 4
  %7 = load i32, ptr %4, align 4
  %8 = sub i32 %6, %7
  store i32 %8, ptr %5, align 4
  %9 = load i32, ptr %5, align 4
  %10 = icmp slt i32 %9, 0
  call void @llvm.lifetime.end.p0(i64 4, ptr %5) #9
  ret i1 %10
}

; Function Attrs: nounwind uwtable
define dso_local void @MultiXactAdvanceOldest(i32 noundef %0, i32 noundef %1) #0 {
  %3 = alloca i32, align 4
  %4 = alloca i32, align 4
  store i32 %0, ptr %3, align 4
  store i32 %1, ptr %4, align 4
  %5 = load ptr, ptr @MultiXactState, align 8
  %6 = getelementptr inbounds nuw %struct.MultiXactStateData, ptr %5, i32 0, i32 3
  %7 = load i32, ptr %6, align 4
  %8 = load i32, ptr %3, align 4
  %9 = call zeroext i1 @MultiXactIdPrecedes(i32 noundef %7, i32 noundef %8)
  br i1 %9, label %10, label %13

10:                                               ; preds = %2
  %11 = load i32, ptr %3, align 4
  %12 = load i32, ptr %4, align 4
  call void @SetMultiXactIdLimit(i32 noundef %11, i32 noundef %12, i1 noundef zeroext false)
  br label %13

13:                                               ; preds = %10, %2
  ret void
}