; Function Attrs: nounwind uwtable
define dso_local void @MultiXactAdvanceOldest(i32 noundef %0, i32 noundef %1) local_unnamed_addr #0 {
  %3 = load ptr, ptr @MultiXactState, align 8
  %4 = getelementptr inbounds nuw i8, ptr %3, i64 12
  %5 = load i32, ptr %4, align 4
  %6 = sub i32 %5, %0
  %7 = icmp slt i32 %6, 0
  br i1 %7, label %8, label %9

8:                                                ; preds = %2
  tail call void @SetMultiXactIdLimit(i32 noundef %0, i32 noundef %1, i1 noundef zeroext false)
  br label %9

9:                                                ; preds = %8, %2
  ret void
}